target datalayout = "e-m:e-p270:32:32-p271:32:32-p272:64:64-i64:64-i128:128-f80:128-n8:16:32:64-S128"
target triple = "x86_64-pc-linux-gnu"

%"struct.OpenColorIO_v2_5dev::RenderParams" = type <{ [4 x float], [4 x float], [4 x float], float, i8, i8, [2 x i8] }>
%"class.OpenColorIO_v2_5dev::CDLOpCPU" = type { %"class.OpenColorIO_v2_5dev::OpCPU", %"struct.OpenColorIO_v2_5dev::RenderParams" }
%"class.OpenColorIO_v2_5dev::OpCPU" = type { ptr }

@_ZTVN19OpenColorIO_v2_5dev5OpCPUE = external unnamed_addr constant { [8 x ptr] }, align 8
@_ZN19OpenColorIO_v2_5dev12RenderParamsC1Ev = hidden unnamed_addr alias void (ptr), ptr @_ZN19OpenColorIO_v2_5dev12RenderParamsC2Ev

; Function Attrs: mustprogress nounwind uwtable
define linkonce_odr hidden void @_ZN19OpenColorIO_v2_5dev5OpCPUD2Ev(ptr noundef nonnull align 8 dereferenceable(8) %0) unnamed_addr #5 comdat align 2 {
  %2 = alloca ptr, align 8
  store ptr %0, ptr %2, align 8, !tbaa !58
  ret void
}

; Function Attrs: mustprogress nounwind uwtable
define linkonce_odr hidden void @_ZN19OpenColorIO_v2_5dev5OpCPUC2Ev(ptr noundef nonnull align 8 dereferenceable(8) %0) unnamed_addr #5 comdat align 2 {
  %2 = alloca ptr, align 8
  store ptr %0, ptr %2, align 8, !tbaa !58
  %3 = load ptr, ptr %2, align 8
  store ptr getelementptr inbounds inrange(-16, 48) ({ [8 x ptr] }, ptr @_ZTVN19OpenColorIO_v2_5dev5OpCPUE, i32 0, i32 0, i32 2), ptr %3, align 8, !tbaa !56
  ret void
}

; Function Attrs: mustprogress uwtable
define hidden void @_ZN19OpenColorIO_v2_5dev8CDLOpCPUC2ERSt10shared_ptrIKNS_9CDLOpDataEE(ptr noundef nonnull align 8 dereferenceable(64) %0, ptr noundef nonnull align 8 dereferenceable(16) %1) unnamed_addr #4 align 2 personality ptr @__gxx_personality_v0 {
  %3 = alloca ptr, align 8
  %4 = alloca ptr, align 8
  %5 = alloca ptr, align 8
  %6 = alloca i32, align 4
  store ptr %0, ptr %3, align 8, !tbaa !54
  store ptr %1, ptr %4, align 8, !tbaa !15
  %7 = load ptr, ptr %3, align 8
  %8 = getelementptr inbounds i8, ptr %7, i64 0
  call void @llvm.memset.p0.i64(ptr align 8 %8, i8 0, i64 8, i1 false)
  call void @_ZN19OpenColorIO_v2_5dev5OpCPUC2Ev(ptr noundef nonnull align 8 dereferenceable(8) %7) #3
  store ptr getelementptr inbounds inrange(-16, 48) ({ [8 x ptr] }, ptr @_ZTVN19OpenColorIO_v2_5dev8CDLOpCPUE, i32 0, i32 0, i32 2), ptr %7, align 8, !tbaa !56
  %9 = getelementptr inbounds nuw %"class.OpenColorIO_v2_5dev::CDLOpCPU", ptr %7, i32 0, i32 1
  invoke void @_ZN19OpenColorIO_v2_5dev12RenderParamsC1Ev(ptr noundef nonnull align 4 dereferenceable(54) %9)
          to label %10 unwind label %14

10:                                               ; preds = %2
  %11 = getelementptr inbounds nuw %"class.OpenColorIO_v2_5dev::CDLOpCPU", ptr %7, i32 0, i32 1
  %12 = load ptr, ptr %4, align 8, !tbaa !15
  invoke void @_ZN19OpenColorIO_v2_5dev12RenderParams6updateERSt10shared_ptrIKNS_9CDLOpDataEE(ptr noundef nonnull align 4 dereferenceable(54) %11, ptr noundef nonnull align 8 dereferenceable(16) %12)
          to label %13 unwind label %14

13:                                               ; preds = %10
  ret void

14:                                               ; preds = %10, %2
  %15 = landingpad { ptr, i32 }
          cleanup
  %16 = extractvalue { ptr, i32 } %15, 0
  store ptr %16, ptr %5, align 8
  %17 = extractvalue { ptr, i32 } %15, 1
  store i32 %17, ptr %6, align 4
  call void @_ZN19OpenColorIO_v2_5dev5OpCPUD2Ev(ptr noundef nonnull align 8 dereferenceable(8) %7) #3
  br label %18

18:                                               ; preds = %14
  %19 = load ptr, ptr %5, align 8
  %20 = load i32, ptr %6, align 4
  %21 = insertvalue { ptr, i32 } poison, ptr %19, 0
  %22 = insertvalue { ptr, i32 } %21, i32 %20, 1
  resume { ptr, i32 } %22
}