; Function Attrs: mustprogress nofree norecurse nosync nounwind willreturn memory(read, argmem: readwrite, inaccessiblemem: none) uwtable
define hidden void @_ZN19OpenColorIO_v2_5dev8CDLOpCPUC2ERSt10shared_ptrIKNS_9CDLOpDataEE(ptr noundef nonnull writeonly align 8 captures(none) dereferenceable(64) initializes((0, 62)) %0, ptr noundef nonnull readonly align 8 captures(none) dereferenceable(16) %1) unnamed_addr #4 align 2 personality ptr @__gxx_personality_v0 {
  store ptr getelementptr inbounds nuw inrange(-16, 48) (i8, ptr @_ZTVN19OpenColorIO_v2_5dev8CDLOpCPUE, i64 16), ptr %0, align 8, !tbaa !44
  %3 = getelementptr inbounds nuw i8, ptr %0, i64 8
  %4 = getelementptr inbounds nuw i8, ptr %0, i64 60
  store i8 0, ptr %4, align 4, !tbaa !3
  %5 = getelementptr inbounds nuw i8, ptr %0, i64 61
  store i8 0, ptr %5, align 1, !tbaa !9
  store float 1.000000e+00, ptr %3, align 8, !tbaa !10
  %6 = getelementptr inbounds nuw i8, ptr %0, i64 12
  store float 1.000000e+00, ptr %6, align 4, !tbaa !10
  %7 = getelementptr inbounds nuw i8, ptr %0, i64 16
  store float 1.000000e+00, ptr %7, align 8, !tbaa !10
  %8 = getelementptr inbounds nuw i8, ptr %0, i64 20
  store float 1.000000e+00, ptr %8, align 4, !tbaa !10
  %9 = getelementptr inbounds nuw i8, ptr %0, i64 24
  %10 = getelementptr inbounds nuw i8, ptr %0, i64 40
  tail call void @llvm.memset.p0.i64(ptr noundef nonnull align 8 dereferenceable(16) %9, i8 0, i64 16, i1 false)
  store float 1.000000e+00, ptr %10, align 8, !tbaa !10
  %11 = getelementptr inbounds nuw i8, ptr %0, i64 44
  store float 1.000000e+00, ptr %11, align 4, !tbaa !10
  %12 = getelementptr inbounds nuw i8, ptr %0, i64 48
  store float 1.000000e+00, ptr %12, align 8, !tbaa !10
  %13 = getelementptr inbounds nuw i8, ptr %0, i64 52
  store float 1.000000e+00, ptr %13, align 4, !tbaa !10
  %14 = getelementptr inbounds nuw i8, ptr %0, i64 56
  store float 1.000000e+00, ptr %14, align 8, !tbaa !11
  tail call void @_ZN19OpenColorIO_v2_5dev12RenderParams6updateERSt10shared_ptrIKNS_9CDLOpDataEE(ptr noundef nonnull align 4 dereferenceable(54) %3, ptr noundef nonnull align 8 dereferenceable(16) %1)
  ret void
}